target datalayout = "e-m:e-p270:32:32-p271:32:32-p272:64:64-i64:64-i128:128-f80:128-n8:16:32:64-S128"
target triple = "x86_64-pc-linux-gnu"

@.str.118 = private unnamed_addr constant [5 x i8] c"name\00", align 1

; Function Attrs: inlinehint nounwind sspstrong willreturn memory(none) uwtable
define internal zeroext i1 @RB_NIL_P(i64 noundef %0) #5 {
  %2 = alloca i64, align 8
  store i64 %0, ptr %2, align 8, !tbaa !7
  %3 = load i64, ptr %2, align 8, !tbaa !7
  %4 = icmp eq i64 %3, 4
  ret i1 %4
}

; Function Attrs: inlinehint nounwind sspstrong uwtable
define internal ptr @env_name(ptr noundef %0) #2 {
  %2 = alloca ptr, align 8
  %3 = alloca ptr, align 8
  store ptr %0, ptr %2, align 8, !tbaa !11
  call void @llvm.lifetime.start.p0(i64 8, ptr %3) #28
  %4 = load ptr, ptr %2, align 8, !tbaa !11
  %5 = call i64 @rb_string_value(ptr noundef %4)
  %6 = load ptr, ptr %2, align 8, !tbaa !11
  %7 = load volatile i64, ptr %6, align 8, !tbaa !7
  %8 = call ptr @get_env_cstr(i64 noundef %7, ptr noundef @.str.118)
  store ptr %8, ptr %3, align 8, !tbaa !14
  %9 = load ptr, ptr %3, align 8, !tbaa !14
  call void @llvm.lifetime.end.p0(i64 8, ptr %3) #28
  ret ptr %9
}

; Function Attrs: nounwind sspstrong uwtable
define internal i64 @env_assoc(i64 noundef %0, i64 noundef %1) #0 {
  %3 = alloca i64, align 8
  %4 = alloca i64, align 8
  %5 = alloca i64, align 8
  %6 = alloca ptr, align 8
  %7 = alloca i64, align 8
  %8 = alloca i32, align 4
  store i64 %0, ptr %4, align 8, !tbaa !7
  store i64 %1, ptr %5, align 8, !tbaa !7
  call void @llvm.lifetime.start.p0(i64 8, ptr %6) #28
  %9 = call ptr @env_name(ptr noundef %5)
  store ptr %9, ptr %6, align 8, !tbaa !14
  call void @llvm.lifetime.start.p0(i64 8, ptr %7) #28
  %10 = load ptr, ptr %6, align 8, !tbaa !14
  %11 = call i64 @getenv_with_lock(ptr noundef %10)
  store i64 %11, ptr %7, align 8, !tbaa !7
  %12 = load i64, ptr %7, align 8, !tbaa !7
  %13 = call zeroext i1 @RB_NIL_P(i64 noundef %12) #27
  br i1 %13, label %18, label %14

14:                                               ; preds = %2
  %15 = load i64, ptr %5, align 8, !tbaa !7
  %16 = load i64, ptr %7, align 8, !tbaa !7
  %17 = call i64 @rb_assoc_new(i64 noundef %15, i64 noundef %16)
  store i64 %17, ptr %3, align 8
  store i32 1, ptr %8, align 4
  br label %19

18:                                               ; preds = %2
  store i64 4, ptr %3, align 8
  store i32 1, ptr %8, align 4
  br label %19

19:                                               ; preds = %18, %14
  call void @llvm.lifetime.end.p0(i64 8, ptr %7) #28
  call void @llvm.lifetime.end.p0(i64 8, ptr %6) #28
  %20 = load i64, ptr %3, align 8
  ret i64 %20
}