; Function Attrs: nounwind sspstrong uwtable
define internal i64 @env_assoc(i64 %0, i64 noundef %1) #0 {
  %3 = alloca i64, align 8
  store i64 %1, ptr %3, align 8, !tbaa !7
  %4 = call i64 @rb_string_value(ptr noundef nonnull %3) #28
  %5 = load volatile i64, ptr %3, align 8, !tbaa !7
  %6 = call fastcc ptr @get_env_cstr(i64 noundef %5, ptr noundef nonnull @.str.118)
  %7 = call fastcc i64 @getenv_with_lock(ptr noundef %6)
  %8 = icmp eq i64 %7, 4
  br i1 %8, label %12, label %9

9:                                                ; preds = %2
  %10 = load i64, ptr %3, align 8, !tbaa !7
  %11 = call i64 @rb_assoc_new(i64 noundef %10, i64 noundef %7) #28
  br label %12

12:                                               ; preds = %2, %9
  %.0 = phi i64 [ %11, %9 ], [ 4, %2 ]
  ret i64 %.0
}